(dp0
S'METTS MARK'
p1
(dp2
S'poi_to_ratio'
p3
F0.0011961722488038277
sS'to_messages'
p4
I807
sS'deferral_payments'
p5
S'NaN'
p6
sS'poi_from_ratio'
p7
F0.045454545454545456
sS'expenses'
p8
I94299
sS'poi'
p9
I00
sS'deferred_income'
p10
g6
sS'email_address'
p11
S'mark.metts@enron.com'
p12
sS'long_term_incentive'
p13
g6
sS'poi_ratio'
p14
F0.8863636363636364
sS'restricted_stock_deferred'
p15
g6
sS'shared_receipt_with_poi'
p16
I702
sS'loan_advances'
p17
g6
sS'from_messages'
p18
I29
sS'other'
p19
I1740
sS'director_fees'
p20
g6
sS'bonus'
p21
I600000
sS'total_stock_value'
p22
I585062
sS'from_poi_to_this_person'
p23
I38
sS'from_this_person_to_poi'
p24
I1
sS'restricted_stock'
p25
I585062
sS'salary'
p26
I365788
sS'total_payments'
p27
I1061827
sS'exercised_stock_options'
p28
g6
ssS'BAXTER JOHN C'
p29
(dp30
g3
S'NaN'
p31
sg4
g6
sg5
I1295738
sg7
g31
sg8
I11200
sg9
I00
sg10
I-1386055
sg11
g6
sg13
I1586055
sg14
g31
sg15
g6
sg16
g6
sg17
g6
sg18
g6
sg19
I2660303
sg20
g6
sg21
I1200000
sg22
I10623258
sg23
g6
sg24
g6
sg25
I3942714
sg26
I267102
sg27
I5634343
sg28
I6680544
ssS'ELLIOTT STEVEN'
p32
(dp33
g3
g31
sg4
g6
sg5
g6
sg7
g31
sg8
I78552
sg9
I00
sg10
I-400729
sg11
S'steven.elliott@enron.com'
p34
sg13
g6
sg14
g31
sg15
g6
sg16
g6
sg17
g6
sg18
g6
sg19
I12961
sg20
g6
sg21
I350000
sg22
I6678735
sg23
g6
sg24
g6
sg25
I1788391
sg26
I170941
sg27
I211725
sg28
I4890344
ssS'CORDES WILLIAM R'
p35
(dp36
g3
F0.0
sg4
I764
sg5
g6
sg7
F0.01288659793814433
sg8
g6
sg9
I00
sg10
g6
sg11
S'bill.cordes@enron.com'
p37
sg13
g6
sg14
F0.08762886597938144
sg15
g6
sg16
I58
sg17
g6
sg18
I12
sg19
g6
sg20
g6
sg21
g6
sg22
I1038185
sg23
I10
sg24
I0
sg25
I386335
sg26
g6
sg27
g6
sg28
I651850
ssS'HANNON KEVIN P'
p38
(dp39
g3
F0.019498607242339833
sg4
I1045
sg5
g6
sg7
F0.029712163416898793
sg8
I34039
sg9
I01
sg10
I-3117011
sg11
S'kevin.hannon@enron.com'
p40
sg13
I1617011
sg14
F1.0102135561745589
sg15
g6
sg16
I1035
sg17
g6
sg18
I32
sg19
I11350
sg20
g6
sg21
I1500000
sg22
I6391065
sg23
I32
sg24
I21
sg25
I853064
sg26
I243293
sg27
I288682
sg28
I5538001
ssS'MORDAUNT KRISTINA M'
p41
(dp42
g3
g31
sg4
g6
sg5
g6
sg7
g31
sg8
I35018
sg9
I00
sg10
g6
sg11
S'kristina.mordaunt@enron.com'
p43
sg13
g6
sg14
g31
sg15
g6
sg16
g6
sg17
g6
sg18
g6
sg19
I1411
sg20
g6
sg21
I325000
sg22
I208510
sg23
g6
sg24
g6
sg25
I208510
sg26
I267093
sg27
I628522
sg28
g6
ssS'MEYER ROCKFORD G'
p44
(dp45
g3
F0.0
sg4
I232
sg5
I1848227
sg7
F0.0
sg8
g6
sg9
I00
sg10
g6
sg11
S'rockford.meyer@enron.com'
p46
sg13
g6
sg14
F0.08461538461538462
sg15
g6
sg16
I22
sg17
g6
sg18
I28
sg19
g6
sg20
g6
sg21
g6
sg22
I955873
sg23
I0
sg24
I0
sg25
I462384
sg26
g6
sg27
I1848227
sg28
I493489
ssS'MCMAHON JEFFREY'
p47
(dp48
g3
F0.010819808572617561
sg4
I2355
sg5
g6
sg7
F0.024136496046608405
sg8
I137108
sg9
I00
sg10
g6
sg11
S'jeffrey.mcmahon@enron.com'
p49
sg13
I694862
sg14
F0.9621306699958385
sg15
g6
sg16
I2228
sg17
g6
sg18
I48
sg19
I297353
sg20
g6
sg21
I2600000
sg22
I1662855
sg23
I58
sg24
I26
sg25
I558801
sg26
I370448
sg27
I4099771
sg28
I1104054
ssS'HORTON STANLEY C'
p50
(dp51
g3
F0.0043821209465381246
sg4
I2350
sg5
I3131860
sg7
F0.012854221443178498
sg8
g6
sg9
I00
sg10
g6
sg11
S'stanley.horton@enron.com'
p52
sg13
g6
sg14
F0.33099620216184633
sg15
g6
sg16
I1074
sg17
g6
sg18
I1073
sg19
g6
sg20
g6
sg21
g6
sg22
I7256648
sg23
I44
sg24
I15
sg25
I2046079
sg26
g6
sg27
I3131860
sg28
I5210569
ssS'PIPER GREGORY F'
p53
(dp54
g3
F0.03287671232876712
sg4
I1238
sg5
I1130036
sg7
F0.04178082191780822
sg8
I43057
sg9
I00
sg10
I-33333
sg11
S'greg.piper@enron.com'
p55
sg13
g6
sg14
F0.5828767123287671
sg15
I-409554
sg16
I742
sg17
g6
sg18
I222
sg19
I778
sg20
g6
sg21
I400000
sg22
I880290
sg23
I61
sg24
I48
sg25
I409554
sg26
I197091
sg27
I1737629
sg28
I880290
ssS'HUMPHREY GENE E'
p56
(dp57
g3
F0.11724137931034483
sg4
I128
sg5
I2964506
sg7
F0.06896551724137931
sg8
I4994
sg9
I00
sg10
g6
sg11
S'gene.humphrey@enron.com'
p58
sg13
g6
sg14
F1.006896551724138
sg15
g6
sg16
I119
sg17
g6
sg18
I17
sg19
g6
sg20
g6
sg21
g6
sg22
I2282768
sg23
I10
sg24
I17
sg25
g6
sg26
I130724
sg27
I3100224
sg28
I2282768
ssS'UMANOFF ADAM S'
p59
(dp60
g3
F0.0
sg4
I111
sg5
g6
sg7
F0.09302325581395349
sg8
I53122
sg9
I00
sg10
g6
sg11
S'adam.umanoff@enron.com'
p61
sg13
g6
sg14
F0.4108527131782946
sg15
g6
sg16
I41
sg17
g6
sg18
I18
sg19
g6
sg20
g6
sg21
I788750
sg22
g6
sg23
I12
sg24
I0
sg25
g6
sg26
I288589
sg27
I1130461
sg28
g6
ssS'BLACHMAN JEREMY M'
p62
(dp63
g3
F0.0008035355564483728
sg4
I2475
sg5
g6
sg7
F0.010044194455604661
sg8
I84208
sg9
I00
sg10
g6
sg11
S'jeremy.blachman@enron.com'
p64
sg13
I831809
sg14
F0.9453595821615106
sg15
g6
sg16
I2326
sg17
g6
sg18
I14
sg19
I272
sg20
g6
sg21
I850000
sg22
I954354
sg23
I25
sg24
I2
sg25
I189041
sg26
I248546
sg27
I2014835
sg28
I765313
ssS'SUNDE MARTIN'
p65
(dp66
g3
F0.00484171322160149
sg4
I2647
sg5
g6
sg7
F0.013780260707635009
sg8
g6
sg9
I00
sg10
g6
sg11
S'marty.sunde@enron.com'
p67
sg13
I476451
sg14
F0.9739292364990689
sg15
g6
sg16
I2565
sg17
g6
sg18
I38
sg19
I111122
sg20
g6
sg21
I700000
sg22
I698920
sg23
I37
sg24
I13
sg25
I698920
sg26
I257486
sg27
I1545059
sg28
g6
ssS'GIBBS DANA R'
p68
(dp69
g3
F0.0
sg4
I169
sg5
I504610
sg7
F0.0
sg8
g6
sg9
I00
sg10
g6
sg11
S'dana.gibbs@enron.com'
p70
sg13
I461912
sg14
F0.1270718232044199
sg15
g6
sg16
I23
sg17
g6
sg18
I12
sg19
g6
sg20
g6
sg21
g6
sg22
I2218275
sg23
I0
sg24
I0
sg25
g6
sg26
g6
sg27
I966522
sg28
I2218275
ssS'LOWRY CHARLES P'
p71
(dp72
g3
g31
sg4
g6
sg5
g6
sg7
g31
sg8
g6
sg9
I00
sg10
g6
sg11
g6
sg13
g6
sg14
g31
sg15
I-153686
sg16
g6
sg17
g6
sg18
g6
sg19
g6
sg20
g6
sg21
g6
sg22
I372205
sg23
g6
sg24
g6
sg25
I153686
sg26
g6
sg27
g6
sg28
I372205
ssS'COLWELL WESLEY'
p73
(dp74
g3
F0.006117908787541713
sg4
I1758
sg5
I27610
sg7
F0.13348164627363737
sg8
I16514
sg9
I01
sg10
I-144062
sg11
S'wes.colwell@enron.com'
p75
sg13
g6
sg14
F0.7691879866518354
sg15
g6
sg16
I1132
sg17
g6
sg18
I40
sg19
I101740
sg20
g6
sg21
I1200000
sg22
I698242
sg23
I240
sg24
I11
sg25
I698242
sg26
I288542
sg27
I1490344
sg28
g6
ssS'MULLER MARK S'
p76
(dp77
g3
F0.0
sg4
I136
sg5
I842924
sg7
F0.07894736842105263
sg8
g6
sg9
I00
sg10
I-719000
sg11
S's..muller@enron.com'
p78
sg13
I1725545
sg14
F0.8289473684210527
sg15
g6
sg16
I114
sg17
g6
sg18
I16
sg19
I947
sg20
g6
sg21
I1100000
sg22
I1416848
sg23
I12
sg24
I0
sg25
I360528
sg26
I251654
sg27
I3202070
sg28
I1056320
ssS'JACKSON CHARLENE R'
p79
(dp80
g3
F0.06050955414012739
sg4
I258
sg5
g6
sg7
F0.07961783439490445
sg8
I10181
sg9
I00
sg10
g6
sg11
S'charlene.jackson@enron.com'
p81
sg13
g6
sg14
F0.5127388535031847
sg15
g6
sg16
I117
sg17
g6
sg18
I56
sg19
I2435
sg20
g6
sg21
I250000
sg22
I725735
sg23
I25
sg24
I19
sg25
I540672
sg26
I288558
sg27
I551174
sg28
I185063
ssS'WESTFAHL RICHARD K'
p82
(dp83
g3
g31
sg4
g6
sg5
g6
sg7
g31
sg8
I51870
sg9
I00
sg10
I-10800
sg11
S'dick.westfahl@enron.com'
p84
sg13
I256191
sg14
g31
sg15
g6
sg16
g6
sg17
g6
sg18
g6
sg19
I401130
sg20
g6
sg21
g6
sg22
I384930
sg23
g6
sg24
g6
sg25
I384930
sg26
I63744
sg27
I762135
sg28
g6
ssS'WALTERS GARETH W'
p85
(dp86
g3
g31
sg4
g6
sg5
I53625
sg7
g31
sg8
I33785
sg9
I00
sg10
g6
sg11
g6
sg13
g6
sg14
g31
sg15
g6
sg16
g6
sg17
g6
sg18
g6
sg19
g6
sg20
g6
sg21
g6
sg22
I1030329
sg23
g6
sg24
g6
sg25
g6
sg26
g6
sg27
I87410
sg28
I1030329
ssS'WALLS JR ROBERT H'
p87
(dp88
g3
F0.0
sg4
I671
sg5
g6
sg7
F0.0208078335373317
sg8
I50936
sg9
I00
sg10
g6
sg11
S'rob.walls@enron.com'
p89
sg13
I540751
sg14
F0.2839657282741738
sg15
g6
sg16
I215
sg17
g6
sg18
I146
sg19
I2
sg20
g6
sg21
I850000
sg22
I5898997
sg23
I17
sg24
I0
sg25
I1552453
sg26
I357091
sg27
I1798780
sg28
I4346544
ssS'KITCHEN LOUISE'
p90
(dp91
g3
F0.019336190571115318
sg4
I8305
sg5
g6
sg7
F0.025017442439948172
sg8
I5774
sg9
I00
sg10
g6
sg11
S'louise.kitchen@enron.com'
p92
sg13
g6
sg14
F0.4100468454101465
sg15
g6
sg16
I3669
sg17
g6
sg18
I1728
sg19
I93925
sg20
g6
sg21
I3100000
sg22
I547143
sg23
I251
sg24
I194
sg25
I466101
sg26
I271442
sg27
I3471141
sg28
I81042
ssS'CHAN RONNIE'
p93
(dp94
g3
g31
sg4
g6
sg5
g6
sg7
g31
sg8
g6
sg9
I00
sg10
I-98784
sg11
g6
sg13
g6
sg14
g31
sg15
I-32460
sg16
g6
sg17
g6
sg18
g6
sg19
g6
sg20
I98784
sg21
g6
sg22
g6
sg23
g6
sg24
g6
sg25
I32460
sg26
g6
sg27
g6
sg28
g6
ssS'BELFER ROBERT'
p95
(dp96
g3
g31
sg4
g6
sg5
I-102500
sg7
g31
sg8
g6
sg9
I00
sg10
g6
sg11
g6
sg13
g6
sg14
g31
sg15
I44093
sg16
g6
sg17
g6
sg18
g6
sg19
g6
sg20
I3285
sg21
g6
sg22
I-44093
sg23
g6
sg24
g6
sg25
g6
sg26
g6
sg27
I102500
sg28
I3285
ssS'SHANKMAN JEFFREY A'
p97
(dp98
g3
F0.014063029481531684
sg4
I3221
sg5
g6
sg7
F0.01592680447305998
sg8
I178979
sg9
I00
sg10
g6
sg11
S'jeffrey.shankman@enron.com'
p99
sg13
I554422
sg14
F0.3231108098949509
sg15
g6
sg16
I1730
sg17
g6
sg18
I2681
sg19
I1191
sg20
g6
sg21
I2000000
sg22
I2072035
sg23
I94
sg24
I83
sg25
I630137
sg26
I304110
sg27
I3038702
sg28
I1441898
ssS'WODRASKA JOHN'
p100
(dp101
g3
g31
sg4
g6
sg5
g6
sg7
g31
sg8
g6
sg9
I00
sg10
g6
sg11
S'john.wodraska@enron.com'
p102
sg13
g6
sg14
g31
sg15
g6
sg16
g6
sg17
g6
sg18
g6
sg19
I189583
sg20
g6
sg21
g6
sg22
g6
sg23
g6
sg24
g6
sg25
g6
sg26
g6
sg27
I189583
sg28
g6
ssS'BERGSIEKER RICHARD P'
p103
(dp104
g3
F0.0
sg4
I383
sg5
g6
sg7
F0.00904977375565611
sg8
I59175
sg9
I00
sg10
I-485813
sg11
S'rick.bergsieker@enron.com'
p105
sg13
I180250
sg14
F0.5361990950226244
sg15
g6
sg16
I233
sg17
g6
sg18
I59
sg19
I427316
sg20
g6
sg21
I250000
sg22
I659249
sg23
I4
sg24
I0
sg25
I659249
sg26
I187922
sg27
I618850
sg28
g6
ssS'URQUHART JOHN A'
p106
(dp107
g3
g31
sg4
g6
sg5
g6
sg7
g31
sg8
I228656
sg9
I00
sg10
I-36666
sg11
g6
sg13
g6
sg14
g31
sg15
g6
sg16
g6
sg17
g6
sg18
g6
sg19
g6
sg20
I36666
sg21
g6
sg22
g6
sg23
g6
sg24
g6
sg25
g6
sg26
g6
sg27
I228656
sg28
g6
ssS'BIBI PHILIPPE A'
p108
(dp109
g3
F0.004857316332726169
sg4
I1607
sg5
g6
sg7
F0.013964784456587736
sg8
I38559
sg9
I00
sg10
g6
sg11
S'philippe.bibi@enron.com'
p110
sg13
I369721
sg14
F0.8299939283545841
sg15
g6
sg16
I1336
sg17
g6
sg18
I40
sg19
I425688
sg20
g6
sg21
I1000000
sg22
I1843816
sg23
I23
sg24
I8
sg25
I378082
sg26
I213625
sg27
I2047593
sg28
I1465734
ssS'RIEKER PAULA H'
p111
(dp112
g3
F0.03404255319148936
sg4
I1328
sg5
I214678
sg7
F0.024822695035460994
sg8
I33271
sg9
I01
sg10
I-100000
sg11
S'paula.rieker@enron.com'
p113
sg13
g6
sg14
F0.951063829787234
sg15
g6
sg16
I1258
sg17
g6
sg18
I82
sg19
I1950
sg20
g6
sg21
I700000
sg22
I1918887
sg23
I35
sg24
I48
sg25
I283649
sg26
I249201
sg27
I1099100
sg28
I1635238
ssS'WHALEY DAVID A'
p114
(dp115
g3
g31
sg4
g6
sg5
g6
sg7
g31
sg8
g6
sg9
I00
sg10
g6
sg11
g6
sg13
g6
sg14
g31
sg15
g6
sg16
g6
sg17
g6
sg18
g6
sg19
g6
sg20
g6
sg21
g6
sg22
I98718
sg23
g6
sg24
g6
sg25
g6
sg26
g6
sg27
g6
sg28
I98718
ssS'BECK SALLY W'
p116
(dp117
g3
F0.0331103105163836
sg4
I7315
sg5
g6
sg7
F0.012352032938754504
sg8
I37172
sg9
I00
sg10
g6
sg11
S'sally.beck@enron.com'
p118
sg13
g6
sg14
F0.2718305026591182
sg15
g6
sg16
I2639
sg17
g6
sg18
I4343
sg19
I566
sg20
g6
sg21
I700000
sg22
I126027
sg23
I144
sg24
I386
sg25
I126027
sg26
I231330
sg27
I969068
sg28
g6
ssS'HAUG DAVID L'
p119
(dp120
g3
F0.011824324324324325
sg4
I573
sg5
g6
sg7
F0.006756756756756757
sg8
I475
sg9
I00
sg10
g6
sg11
S'david.haug@enron.com'
p121
sg13
g6
sg14
F0.8141891891891891
sg15
g6
sg16
I471
sg17
g6
sg18
I19
sg19
g6
sg20
g6
sg21
g6
sg22
I2217299
sg23
I4
sg24
I7
sg25
I2217299
sg26
g6
sg27
I475
sg28
g6
ssS'ECHOLS JOHN B'
p122
(dp123
g3
g31
sg4
g6
sg5
g6
sg7
g31
sg8
I21530
sg9
I00
sg10
g6
sg11
S'john.echols@enron.com'
p124
sg13
I2234774
sg14
g31
sg15
g6
sg16
g6
sg17
g6
sg18
g6
sg19
I53775
sg20
g6
sg21
I200000
sg22
I1008941
sg23
g6
sg24
g6
sg25
I407503
sg26
I182245
sg27
I2692324
sg28
I601438
ssS'MENDELSOHN JOHN'
p125
(dp126
g3
g31
sg4
g6
sg5
g6
sg7
g31
sg8
I148
sg9
I00
sg10
I-103750
sg11
g6
sg13
g6
sg14
g31
sg15
g6
sg16
g6
sg17
g6
sg18
g6
sg19
g6
sg20
I103750
sg21
g6
sg22
g6
sg23
g6
sg24
g6
sg25
g6
sg26
g6
sg27
I148
sg28
g6
ssS'HICKERSON GARY J'
p127
(dp128
g3
F0.0007423904974016332
sg4
I1320
sg5
g6
sg7
F0.02969561989606533
sg8
I98849
sg9
I00
sg10
g6
sg11
S'gary.hickerson@enron.com'
p129
sg13
I69223
sg14
F0.6985894580549369
sg15
g6
sg16
I900
sg17
g6
sg18
I27
sg19
I1936
sg20
g6
sg21
I1700000
sg22
I441096
sg23
I40
sg24
I1
sg25
I441096
sg26
I211788
sg27
I2081796
sg28
g6
ssS'CLINE KENNETH W'
p130
(dp131
g3
g31
sg4
g6
sg5
g6
sg7
g31
sg8
g6
sg9
I00
sg10
g6
sg11
g6
sg13
g6
sg14
g31
sg15
I-472568
sg16
g6
sg17
g6
sg18
g6
sg19
g6
sg20
g6
sg21
g6
sg22
I189518
sg23
g6
sg24
g6
sg25
I662086
sg26
g6
sg27
g6
sg28
g6
ssS'LEWIS RICHARD'
p132
(dp133
g3
F0.0
sg4
I952
sg5
g6
sg7
F0.010224948875255624
sg8
g6
sg9
I00
sg10
g6
sg11
S'richard.lewis@enron.com'
p134
sg13
g6
sg14
F0.7658486707566462
sg15
g6
sg16
I739
sg17
g6
sg18
I26
sg19
g6
sg20
g6
sg21
g6
sg22
I850477
sg23
I10
sg24
I0
sg25
g6
sg26
g6
sg27
g6
sg28
I850477
ssS'HAYES ROBERT E'
p135
(dp136
g3
F0.0
sg4
I504
sg5
I7961
sg7
F0.031007751937984496
sg8
g6
sg9
I00
sg10
g6
sg11
S'robert.hayes@enron.com'
p137
sg13
g6
sg14
F0.12790697674418605
sg15
g6
sg16
I50
sg17
g6
sg18
I12
sg19
g6
sg20
g6
sg21
g6
sg22
I151418
sg23
I16
sg24
I0
sg25
I151418
sg26
g6
sg27
I7961
sg28
g6
ssS'MCCARTY DANNY J'
p138
(dp139
g3
F0.0012135922330097086
sg4
I1433
sg5
g6
sg7
F0.01516990291262136
sg8
g6
sg9
I00
sg10
g6
sg11
S'danny.mccarty@enron.com'
p140
sg13
g6
sg14
F0.3246359223300971
sg15
g6
sg16
I508
sg17
g6
sg18
I215
sg19
g6
sg20
g6
sg21
g6
sg22
I758931
sg23
I25
sg24
I2
sg25
I94556
sg26
g6
sg27
g6
sg28
I664375
ssS'KOPPER MICHAEL J'
p141
(dp142
g3
g31
sg4
g6
sg5
g6
sg7
g31
sg8
I118134
sg9
I01
sg10
g6
sg11
S'michael.kopper@enron.com'
p143
sg13
I602671
sg14
g31
sg15
g6
sg16
g6
sg17
g6
sg18
g6
sg19
I907502
sg20
g6
sg21
I800000
sg22
I985032
sg23
g6
sg24
g6
sg25
I985032
sg26
I224305
sg27
I2652612
sg28
g6
ssS'LEFF DANIEL P'
p144
(dp145
g3
F0.004852686308492201
sg4
I2822
sg5
g6
sg7
F0.023223570190641248
sg8
g6
sg9
I00
sg10
g6
sg11
S'dan.leff@enron.com'
p146
sg13
I1387399
sg14
F0.9542461005199306
sg15
g6
sg16
I2672
sg17
g6
sg18
I63
sg19
I3083
sg20
g6
sg21
I1000000
sg22
I360528
sg23
I67
sg24
I14
sg25
I360528
sg26
I273746
sg27
I2664228
sg28
g6
ssS'LAVORATO JOHN J'
p147
(dp148
g3
F0.04175132060138155
sg4
I7259
sg5
g6
sg7
F0.053636733035351485
sg8
I49537
sg9
I00
sg10
g6
sg11
S'john.lavorato@enron.com'
p149
sg13
I2035380
sg14
F0.4978667208451849
sg15
g6
sg16
I3962
sg17
g6
sg18
I2585
sg19
I1552
sg20
g6
sg21
I8000000
sg22
I5167144
sg23
I528
sg24
I411
sg25
I1008149
sg26
I339288
sg27
I10425757
sg28
I4158995
ssS'BERBERIAN DAVID'
p150
(dp151
g3
g31
sg4
g6
sg5
g6
sg7
g31
sg8
I11892
sg9
I00
sg10
g6
sg11
S'david.berberian@enron.com'
p152
sg13
g6
sg14
g31
sg15
g6
sg16
g6
sg17
g6
sg18
g6
sg19
g6
sg20
g6
sg21
g6
sg22
I2493616
sg23
g6
sg24
g6
sg25
I869220
sg26
I216582
sg27
I228474
sg28
I1624396
ssS'DETMERING TIMOTHY J'
p153
(dp154
g3
g31
sg4
g6
sg5
I875307
sg7
g31
sg8
I52255
sg9
I00
sg10
I-775241
sg11
S'timothy.detmering@enron.com'
p155
sg13
I415657
sg14
g31
sg15
I-315068
sg16
g6
sg17
g6
sg18
g6
sg19
I1105
sg20
g6
sg21
I425000
sg22
I2027865
sg23
g6
sg24
g6
sg25
I315068
sg26
I210500
sg27
I1204583
sg28
I2027865
ssS'WAKEHAM JOHN'
p156
(dp157
g3
g31
sg4
g6
sg5
g6
sg7
g31
sg8
I103773
sg9
I00
sg10
g6
sg11
g6
sg13
g6
sg14
g31
sg15
g6
sg16
g6
sg17
g6
sg18
g6
sg19
g6
sg20
I109298
sg21
g6
sg22
g6
sg23
g6
sg24
g6
sg25
g6
sg26
g6
sg27
I213071
sg28
g6
ssS'POWERS WILLIAM'
p158
(dp159
g3
F0.0
sg4
I653
sg5
g6
sg7
F0.0
sg8
g6
sg9
I00
sg10
I-17500
sg11
S'ken.powers@enron.com'
p160
sg13
g6
sg14
F0.017673048600883652
sg15
g6
sg16
I12
sg17
g6
sg18
I26
sg19
g6
sg20
I17500
sg21
g6
sg22
g6
sg23
I0
sg24
I0
sg25
g6
sg26
g6
sg27
g6
sg28
g6
ssS'GOLD JOSEPH'
p161
(dp162
g3
g31
sg4
g6
sg5
g6
sg7
g31
sg8
g6
sg9
I00
sg10
g6
sg11
S'joe.gold@enron.com'
p163
sg13
I304805
sg14
g31
sg15
g6
sg16
g6
sg17
g6
sg18
g6
sg19
I819288
sg20
g6
sg21
I750000
sg22
I877611
sg23
g6
sg24
g6
sg25
I441096
sg26
I272880
sg27
I2146973
sg28
I436515
ssS'BANNANTINE JAMES M'
p164
(dp165
g3
F0.0
sg4
I566
sg5
g6
sg7
F0.06554621848739496
sg8
I56301
sg9
I00
sg10
I-5104
sg11
S'james.bannantine@enron.com'
p166
sg13
g6
sg14
F0.8470588235294118
sg15
I-560222
sg16
I465
sg17
g6
sg18
I29
sg19
I864523
sg20
g6
sg21
g6
sg22
I5243487
sg23
I39
sg24
I0
sg25
I1757552
sg26
I477
sg27
I916197
sg28
I4046157
ssS'DUNCAN JOHN H'
p167
(dp168
g3
g31
sg4
g6
sg5
g6
sg7
g31
sg8
g6
sg9
I00
sg10
I-25000
sg11
g6
sg13
g6
sg14
g31
sg15
g6
sg16
g6
sg17
g6
sg18
g6
sg19
g6
sg20
I102492
sg21
g6
sg22
I371750
sg23
g6
sg24
g6
sg25
g6
sg26
g6
sg27
I77492
sg28
I371750
ssS'SHAPIRO RICHARD S'
p169
(dp170
g3
F0.003972133952578832
sg4
I15149
sg5
g6
sg7
F0.004522121730628209
sg8
I137767
sg9
I00
sg10
g6
sg11
S'richard.shapiro@enron.com'
p171
sg13
g6
sg14
F0.28513810804204354
sg15
g6
sg16
I4527
sg17
g6
sg18
I1215
sg19
I705
sg20
g6
sg21
I650000
sg22
I987001
sg23
I74
sg24
I65
sg25
I379164
sg26
I269076
sg27
I1057548
sg28
I607837
ssS'SHERRIFF JOHN R'
p172
(dp173
g3
F0.007014333638304361
sg4
I3187
sg5
g6
sg7
F0.008539188777066178
sg8
g6
sg9
I00
sg10
g6
sg11
S'john.sherriff@enron.com'
p174
sg13
I554422
sg14
F0.656907593778591
sg15
g6
sg16
I2103
sg17
g6
sg18
I92
sg19
I1852186
sg20
g6
sg21
I1500000
sg22
I3128982
sg23
I28
sg24
I23
sg25
I1293424
sg26
I428780
sg27
I4335388
sg28
I1835558
ssS'SHELBY REX'
p175
(dp176
g3
F0.05303030303030303
sg4
I225
sg5
g6
sg7
F0.04924242424242424
sg8
I22884
sg9
I01
sg10
I-4167
sg11
S'rex.shelby@enron.com'
p177
sg13
g6
sg14
F0.44696969696969696
sg15
g6
sg16
I91
sg17
g6
sg18
I39
sg19
I1573324
sg20
g6
sg21
I200000
sg22
I2493616
sg23
I13
sg24
I14
sg25
I869220
sg26
I211844
sg27
I2003885
sg28
I1624396
ssS'LEMAISTRE CHARLES'
p178
(dp179
g3
g31
sg4
g6
sg5
g6
sg7
g31
sg8
g6
sg9
I00
sg10
I-25000
sg11
g6
sg13
g6
sg14
g31
sg15
g6
sg16
g6
sg17
g6
sg18
g6
sg19
g6
sg20
I112492
sg21
g6
sg22
I412878
sg23
g6
sg24
g6
sg25
g6
sg26
g6
sg27
I87492
sg28
I412878
ssS'DEFFNER JOSEPH M'
p180
(dp181
g3
F0.005076142131979695
sg4
I714
sg5
g6
sg7
F0.14593908629441624
sg8
I41626
sg9
I00
sg10
g6
sg11
S'joseph.deffner@enron.com'
p182
sg13
I335349
sg14
F0.8515228426395939
sg15
g6
sg16
I552
sg17
g6
sg18
I74
sg19
I25553
sg20
g6
sg21
I600000
sg22
I159211
sg23
I115
sg24
I4
sg25
I141833
sg26
I206121
sg27
I1208649
sg28
I17378
ssS'KISHKILL JOSEPH G'
p183
(dp184
g3
g31
sg4
g6
sg5
g6
sg7
g31
sg8
I116335
sg9
I00
sg10
I-51042
sg11
S'joe.kishkill@enron.com'
p185
sg13
g6
sg14
g31
sg15
g6
sg16
g6
sg17
g6
sg18
g6
sg19
I465357
sg20
g6
sg21
g6
sg22
I1034346
sg23
g6
sg24
g6
sg25
I1034346
sg26
I174246
sg27
I704896
sg28
g6
ssS'WHALLEY LAWRENCE G'
p186
(dp187
g3
F0.003650190114068441
sg4
I6019
sg5
g6
sg7
F0.028288973384030417
sg8
I57838
sg9
I00
sg10
g6
sg11
S'greg.whalley@enron.com'
p188
sg13
I808346
sg14
F0.6281368821292775
sg15
g6
sg16
I3920
sg17
g6
sg18
I556
sg19
I301026
sg20
g6
sg21
I3000000
sg22
I6079137
sg23
I186
sg24
I24
sg25
I2796177
sg26
I510364
sg27
I4677574
sg28
I3282960
ssS'MCCONNELL MICHAEL S'
p189
(dp190
g3
F0.031955196837423816
sg4
I3329
sg5
g6
sg7
F0.015154010871355626
sg8
I81364
sg9
I00
sg10
g6
sg11
S'mike.mcconnell@enron.com'
p191
sg13
I554422
sg14
F0.4076758359413606
sg15
g6
sg16
I2189
sg17
g6
sg18
I2742
sg19
I540
sg20
g6
sg21
I1100000
sg22
I3101279
sg23
I92
sg24
I194
sg25
I1478269
sg26
I365038
sg27
I2101364
sg28
I1623010
ssS'PIRO JIM'
p192
(dp193
g3
F0.013513513513513514
sg4
I58
sg5
g6
sg7
F0.0
sg8
g6
sg9
I00
sg10
g6
sg11
S'jim.piro@enron.com'
p194
sg13
g6
sg14
F0.05405405405405406
sg15
g6
sg16
I3
sg17
g6
sg18
I16
sg19
g6
sg20
g6
sg21
g6
sg22
I47304
sg23
I0
sg24
I1
sg25
I47304
sg26
g6
sg27
g6
sg28
g6
ssS'DELAINEY DAVID W'
p195
(dp196
g3
F0.0988315481986368
sg4
I3093
sg5
g6
sg7
F0.010710808179162609
sg8
I86174
sg9
I01
sg10
g6
sg11
S'david.delainey@enron.com'
p197
sg13
I1294981
sg14
F0.4498539435248296
sg15
g6
sg16
I2097
sg17
g6
sg18
I3069
sg19
I1661
sg20
g6
sg21
I3000000
sg22
I3614261
sg23
I66
sg24
I609
sg25
I1323148
sg26
I365163
sg27
I4747979
sg28
I2291113
ssS'SULLIVAN-SHAKLOVITZ COLLEEN'
p198
(dp199
g3
g31
sg4
g6
sg5
I181993
sg7
g31
sg8
g6
sg9
I00
sg10
g6
sg11
g6
sg13
I554422
sg14
g31
sg15
g6
sg16
g6
sg17
g6
sg18
g6
sg19
I162
sg20
g6
sg21
I100000
sg22
I1362375
sg23
g6
sg24
g6
sg25
g6
sg26
I162779
sg27
I999356
sg28
I1362375
ssS'WROBEL BRUCE'
p200
(dp201
g3
g31
sg4
g6
sg5
g6
sg7
g31
sg8
g6
sg9
I00
sg10
g6
sg11
g6
sg13
g6
sg14
g31
sg15
g6
sg16
g6
sg17
g6
sg18
g6
sg19
g6
sg20
g6
sg21
g6
sg22
I139130
sg23
g6
sg24
g6
sg25
g6
sg26
g6
sg27
g6
sg28
I139130
ssS'LINDHOLM TOD A'
p202
(dp203
g3
g31
sg4
g6
sg5
I204075
sg7
g31
sg8
I57727
sg9
I00
sg10
g6
sg11
S'tod.lindholm@enron.com'
p204
sg13
I175000
sg14
g31
sg15
g6
sg16
g6
sg17
g6
sg18
g6
sg19
I2630
sg20
g6
sg21
I200000
sg22
I3064208
sg23
g6
sg24
g6
sg25
I514847
sg26
I236457
sg27
I875889
sg28
I2549361
ssS'MEYER JEROME J'
p205
(dp206
g3
g31
sg4
g6
sg5
g6
sg7
g31
sg8
I2151
sg9
I00
sg10
I-38346
sg11
g6
sg13
g6
sg14
g31
sg15
g6
sg16
g6
sg17
g6
sg18
g6
sg19
g6
sg20
I38346
sg21
g6
sg22
g6
sg23
g6
sg24
g6
sg25
g6
sg26
g6
sg27
I2151
sg28
g6
ssS'LAY KENNETH L'
p207
(dp208
g3
F0.0037131585054537017
sg4
I4273
sg5
I202911
sg7
F0.02854490601067533
sg8
I99832
sg9
I01
sg10
I-300000
sg11
S'kenneth.lay@enron.com'
p209
sg13
I3600000
sg14
F0.5917846368066837
sg15
g6
sg16
I2411
sg17
I81525000
sg18
I36
sg19
I10359729
sg20
g6
sg21
I7000000
sg22
I49110078
sg23
I123
sg24
I16
sg25
I14761694
sg26
I1072321
sg27
I103559793
sg28
I34348384
ssS'BUTTS ROBERT H'
p210
(dp211
g3
g31
sg4
g6
sg5
g6
sg7
g31
sg8
I9410
sg9
I00
sg10
I-75000
sg11
S'bob.butts@enron.com'
p212
sg13
I175000
sg14
g31
sg15
g6
sg16
g6
sg17
g6
sg18
g6
sg19
I150656
sg20
g6
sg21
I750000
sg22
I417619
sg23
g6
sg24
g6
sg25
I417619
sg26
I261516
sg27
I1271582
sg28
g6
ssS'OLSON CINDY K'
p213
(dp214
g3
F0.012135922330097087
sg4
I1184
sg5
I77716
sg7
F0.016181229773462782
sg8
I63791
sg9
I00
sg10
g6
sg11
S'cindy.olson@enron.com'
p215
sg13
I100000
sg14
F0.720873786407767
sg15
g6
sg16
I856
sg17
g6
sg18
I52
sg19
I972
sg20
g6
sg21
I750000
sg22
I2606763
sg23
I20
sg24
I15
sg25
I969729
sg26
I329078
sg27
I1321557
sg28
I1637034
ssS'MCDONALD REBECCA'
p216
(dp217
g3
F0.0011025358324145535
sg4
I894
sg5
g6
sg7
F0.05953693495038589
sg8
g6
sg9
I00
sg10
g6
sg11
S'rebecca.mcdonald@enron.com'
p218
sg13
g6
sg14
F0.8544652701212789
sg15
g6
sg16
I720
sg17
g6
sg18
I13
sg19
g6
sg20
g6
sg21
g6
sg22
I1691366
sg23
I54
sg24
I1
sg25
I934065
sg26
g6
sg27
g6
sg28
I757301
ssS'CUMBERLAND MICHAEL S'
p219
(dp220
g3
g31
sg4
g6
sg5
g6
sg7
g31
sg8
I22344
sg9
I00
sg10
g6
sg11
g6
sg13
I275000
sg14
g31
sg15
g6
sg16
g6
sg17
g6
sg18
g6
sg19
I713
sg20
g6
sg21
I325000
sg22
I207940
sg23
g6
sg24
g6
sg25
I207940
sg26
I184899
sg27
I807956
sg28
g6
ssS'GAHN ROBERT S'
p221
(dp222
g3
g31
sg4
g6
sg5
I73122
sg7
g31
sg8
I50080
sg9
I00
sg10
I-1042
sg11
g6
sg13
g6
sg14
g31
sg15
g6
sg16
g6
sg17
g6
sg18
g6
sg19
I76547
sg20
g6
sg21
I509870
sg22
I318607
sg23
g6
sg24
g6
sg25
I235370
sg26
I192008
sg27
I900585
sg28
I83237
ssS'MCCLELLAN GEORGE'
p223
(dp224
g3
F0.0
sg4
I1744
sg5
g6
sg7
F0.029001673173452314
sg8
I228763
sg9
I00
sg10
I-125000
sg11
S'george.mcclellan@enron.com'
p225
sg13
g6
sg14
F0.8482989403234802
sg15
g6
sg16
I1469
sg17
g6
sg18
I49
sg19
I51587
sg20
g6
sg21
I900000
sg22
I947861
sg23
I52
sg24
I0
sg25
I441096
sg26
I263413
sg27
I1318763
sg28
I506765
ssS'HERMANN ROBERT J'
p226
(dp227
g3
g31
sg4
g6
sg5
g6
sg7
g31
sg8
I48357
sg9
I00
sg10
I-280000
sg11
S'robert.hermann@enron.com'
p228
sg13
I150000
sg14
g31
sg15
g6
sg16
g6
sg17
g6
sg18
g6
sg19
I416441
sg20
g6
sg21
I700000
sg22
I668132
sg23
g6
sg24
g6
sg25
I480632
sg26
I262663
sg27
I1297461
sg28
I187500
ssS'SCRIMSHAW MATTHEW'
p229
(dp230
g3
g31
sg4
g6
sg5
g6
sg7
g31
sg8
g6
sg9
I00
sg10
g6
sg11
S'matthew.scrimshaw@enron.com'
p231
sg13
g6
sg14
g31
sg15
g6
sg16
g6
sg17
g6
sg18
g6
sg19
g6
sg20
g6
sg21
g6
sg22
I759557
sg23
g6
sg24
g6
sg25
g6
sg26
g6
sg27
g6
sg28
I759557
ssS'GATHMANN WILLIAM D'
p232
(dp233
g3
g31
sg4
g6
sg5
g6
sg7
g31
sg8
g6
sg9
I00
sg10
g6
sg11
g6
sg13
g6
sg14
g31
sg15
I-72419
sg16
g6
sg17
g6
sg18
g6
sg19
g6
sg20
g6
sg21
g6
sg22
I1945360
sg23
g6
sg24
g6
sg25
I264013
sg26
g6
sg27
g6
sg28
I1753766
ssS'HAEDICKE MARK E'
p234
(dp235
g3
F0.010252100840336134
sg4
I4009
sg5
I2157527
sg7
F0.030252100840336135
sg8
I76169
sg9
I00
sg10
I-934484
sg11
S'mark.haedicke@enron.com'
p236
sg13
I983346
sg14
F0.35092436974789915
sg15
I-329825
sg16
I1847
sg17
g6
sg18
I1941
sg19
I52382
sg20
g6
sg21
I1150000
sg22
I803094
sg23
I180
sg24
I61
sg25
I524169
sg26
I374125
sg27
I3859065
sg28
I608750
ssS'BOWEN JR RAYMOND M'
p237
(dp238
g3
F0.007957559681697613
sg4
I1858
sg5
g6
sg7
F0.07427055702917772
sg8
I65907
sg9
I01
sg10
I-833
sg11
S'raymond.bowen@enron.com'
p239
sg13
I974293
sg14
F0.9273209549071618
sg15
g6
sg16
I1593
sg17
g6
sg18
I27
sg19
I1621
sg20
g6
sg21
I1350000
sg22
I252055
sg23
I140
sg24
I15
sg25
I252055
sg26
I278601
sg27
I2669589
sg28
g6
ssS'GILLIS JOHN'
p240
(dp241
g3
g31
sg4
g6
sg5
g6
sg7
g31
sg8
g6
sg9
I00
sg10
g6
sg11
g6
sg13
g6
sg14
g31
sg15
g6
sg16
g6
sg17
g6
sg18
g6
sg19
g6
sg20
g6
sg21
g6
sg22
I85641
sg23
g6
sg24
g6
sg25
I75838
sg26
g6
sg27
g6
sg28
I9803
ssS'FITZGERALD JAY L'
p242
(dp243
g3
F0.008403361344537815
sg4
I936
sg5
g6
sg7
F0.0010504201680672268
sg8
I23870
sg9
I00
sg10
g6
sg11
S'jay.fitzgerald@enron.com'
p244
sg13
I556416
sg14
F0.7689075630252101
sg15
g6
sg16
I723
sg17
g6
sg18
I16
sg19
I285414
sg20
g6
sg21
I350000
sg22
I1621236
sg23
I1
sg24
I8
sg25
I956775
sg26
I199157
sg27
I1414857
sg28
I664461
ssS'MORAN MICHAEL P'
p245
(dp246
g3
F0.0
sg4
I672
sg5
g6
sg7
F0.0
sg8
g6
sg9
I00
sg10
g6
sg11
S'michael.moran@enron.com'
p247
sg13
g6
sg14
F0.1837916063675832
sg15
g6
sg16
I127
sg17
g6
sg18
I19
sg19
g6
sg20
g6
sg21
g6
sg22
I221141
sg23
I0
sg24
I0
sg25
I161602
sg26
g6
sg27
g6
sg28
I59539
ssS'REDMOND BRIAN L'
p248
(dp249
g3
F0.025898520084566595
sg4
I1671
sg5
g6
sg7
F0.10782241014799154
sg8
I14689
sg9
I00
sg10
g6
sg11
S'brian.redmond@enron.com'
p250
sg13
g6
sg14
F0.6955602536997886
sg15
g6
sg16
I1063
sg17
g6
sg18
I221
sg19
g6
sg20
g6
sg21
g6
sg22
I7890324
sg23
I204
sg24
I49
sg25
I381285
sg26
I96840
sg27
I111529
sg28
I7509039
ssS'BAZELIDES PHILIP J'
p251
(dp252
g3
g31
sg4
g6
sg5
I684694
sg7
g31
sg8
g6
sg9
I00
sg10
g6
sg11
g6
sg13
I93750
sg14
g31
sg15
g6
sg16
g6
sg17
g6
sg18
g6
sg19
I874
sg20
g6
sg21
g6
sg22
I1599641
sg23
g6
sg24
g6
sg25
g6
sg26
I80818
sg27
I860136
sg28
I1599641
ssS'BELDEN TIMOTHY N'
p253
(dp254
g3
F0.012743362831858408
sg4
I7991
sg5
I2144013
sg7
F0.026902654867256636
sg8
I17355
sg9
I01
sg10
I-2334434
sg11
S'tim.belden@enron.com'
p255
sg13
g6
sg14
F0.6910914454277286
sg15
g6
sg16
I5521
sg17
g6
sg18
I484
sg19
I210698
sg20
g6
sg21
I5249999
sg22
I1110705
sg23
I228
sg24
I108
sg25
I157569
sg26
I213999
sg27
I5501630
sg28
I953136
ssS'DURAN WILLIAM D'
p256
(dp257
g3
F0.0032751091703056767
sg4
I904
sg5
g6
sg7
F0.11572052401746726
sg8
I25785
sg9
I00
sg10
g6
sg11
S'w.duran@enron.com'
p258
sg13
I1105218
sg14
F0.7729257641921398
sg15
g6
sg16
I599
sg17
g6
sg18
I12
sg19
I1568
sg20
g6
sg21
I750000
sg22
I1640910
sg23
I106
sg24
I3
sg25
I189041
sg26
I210692
sg27
I2093263
sg28
I1451869
ssS'THORN TERENCE H'
p259
(dp260
g3
F0.0
sg4
I266
sg5
I16586
sg7
F0.0
sg8
I46145
sg9
I00
sg10
g6
sg11
S'terence.thorn@enron.com'
p261
sg13
I200000
sg14
F0.23778501628664495
sg15
g6
sg16
I73
sg17
g6
sg18
I41
sg19
I426629
sg20
g6
sg21
g6
sg22
I4817796
sg23
I0
sg24
I0
sg25
I365320
sg26
I222093
sg27
I911453
sg28
I4452476
ssS'FASTOW ANDREW S'
p262
(dp263
g3
g31
sg4
g6
sg5
g6
sg7
g31
sg8
I55921
sg9
I01
sg10
I-1386055
sg11
S'andrew.fastow@enron.com'
p264
sg13
I1736055
sg14
g31
sg15
g6
sg16
g6
sg17
g6
sg18
g6
sg19
I277464
sg20
g6
sg21
I1300000
sg22
I1794412
sg23
g6
sg24
g6
sg25
I1794412
sg26
I440698
sg27
I2424083
sg28
g6
ssS'FOY JOE'
p265
(dp266
g3
F0.0
sg4
I57
sg5
I181755
sg7
F0.0
sg8
g6
sg9
I00
sg10
g6
sg11
S'tracy.foy@enron.com'
p267
sg13
g6
sg14
F0.02857142857142857
sg15
g6
sg16
I2
sg17
g6
sg18
I13
sg19
g6
sg20
g6
sg21
g6
sg22
I343434
sg23
I0
sg24
I0
sg25
g6
sg26
g6
sg27
I181755
sg28
I343434
ssS'CALGER CHRISTOPHER F'
p268
(dp269
g3
F0.00911743253099927
sg4
I2598
sg5
g6
sg7
F0.07257476294675419
sg8
I35818
sg9
I01
sg10
I-262500
sg11
S'christopher.calger@enron.com'
p270
sg13
I375304
sg14
F0.8796498905908097
sg15
g6
sg16
I2188
sg17
g6
sg18
I144
sg19
I486
sg20
g6
sg21
I1250000
sg22
I126027
sg23
I199
sg24
I25
sg25
I126027
sg26
I240189
sg27
I1639297
sg28
g6
ssS'RICE KENNETH D'
p271
(dp272
g3
F0.004333694474539545
sg4
I905
sg5
g6
sg7
F0.04550379198266522
sg8
I46950
sg9
I01
sg10
I-3504386
sg11
S'ken.rice@enron.com'
p273
sg13
I1617011
sg14
F0.9859154929577465
sg15
g6
sg16
I864
sg17
g6
sg18
I18
sg19
I174839
sg20
g6
sg21
I1750000
sg22
I22542539
sg23
I42
sg24
I4
sg25
I2748364
sg26
I420636
sg27
I505050
sg28
I19794175
ssS'KAMINSKI WINCENTY J'
p274
(dp275
g3
F0.009011857707509882
sg4
I4607
sg5
g6
sg7
F0.002160737812911726
sg8
I83585
sg9
I00
sg10
g6
sg11
S'vince.kaminski@enron.com'
p276
sg13
I323466
sg14
F0.04189723320158103
sg15
g6
sg16
I583
sg17
g6
sg18
I14368
sg19
I4669
sg20
g6
sg21
I400000
sg22
I976037
sg23
I41
sg24
I171
sg25
I126027
sg26
I275101
sg27
I1086821
sg28
I850010
ssS'LOCKHART EUGENE E'
p277
(dp278
g3
g31
sg4
g6
sg5
g6
sg7
g31
sg8
g6
sg9
I00
sg10
g6
sg11
g6
sg13
g6
sg14
g31
sg15
g6
sg16
g6
sg17
g6
sg18
g6
sg19
g6
sg20
g6
sg21
g6
sg22
g6
sg23
g6
sg24
g6
sg25
g6
sg26
g6
sg27
g6
sg28
g6
ssS'COX DAVID'
p279
(dp280
g3
F0.02962962962962963
sg4
I102
sg5
g6
sg7
F0.0
sg8
I27861
sg9
I00
sg10
I-41250
sg11
S'chip.cox@enron.com'
p281
sg13
g6
sg14
F0.5555555555555556
sg15
g6
sg16
I71
sg17
g6
sg18
I33
sg19
I494
sg20
g6
sg21
I800000
sg22
I495633
sg23
I0
sg24
I4
sg25
I378082
sg26
I314288
sg27
I1101393
sg28
I117551
ssS'OVERDYKE JR JERE C'
p282
(dp283
g3
g31
sg4
g6
sg5
g6
sg7
g31
sg8
I18834
sg9
I00
sg10
g6
sg11
S'jere.overdyke@enron.com'
p284
sg13
I135836
sg14
g31
sg15
g6
sg16
g6
sg17
g6
sg18
g6
sg19
I176
sg20
g6
sg21
g6
sg22
I7307594
sg23
g6
sg24
g6
sg25
I2041016
sg26
I94941
sg27
I249787
sg28
I5266578
ssS'PEREIRA PAULO V. FERRAZ'
p285
(dp286
g3
g31
sg4
g6
sg5
g6
sg7
g31
sg8
I27942
sg9
I00
sg10
I-101250
sg11
g6
sg13
g6
sg14
g31
sg15
g6
sg16
g6
sg17
g6
sg18
g6
sg19
g6
sg20
I101250
sg21
g6
sg22
g6
sg23
g6
sg24
g6
sg25
g6
sg26
g6
sg27
I27942
sg28
g6
ssS'STABLER FRANK'
p287
(dp288
g3
g31
sg4
g6
sg5
g6
sg7
g31
sg8
I16514
sg9
I00
sg10
g6
sg11
S'frank.stabler@enron.com'
p289
sg13
g6
sg14
g31
sg15
g6
sg16
g6
sg17
g6
sg18
g6
sg19
I356071
sg20
g6
sg21
I500000
sg22
I511734
sg23
g6
sg24
g6
sg25
I511734
sg26
I239502
sg27
I1112087
sg28
g6
ssS'SKILLING JEFFREY K'
p290
(dp291
g3
F0.008032128514056224
sg4
I3627
sg5
g6
sg7
F0.02356091030789826
sg8
I29336
sg9
I01
sg10
g6
sg11
S'jeff.skilling@enron.com'
p292
sg13
I1920000
sg14
F0.5783132530120482
sg15
g6
sg16
I2042
sg17
g6
sg18
I108
sg19
I22122
sg20
g6
sg21
I5600000
sg22
I26093672
sg23
I88
sg24
I30
sg25
I6843672
sg26
I1111258
sg27
I8682716
sg28
I19250000
ssS'BLAKE JR. NORMAN P'
p293
(dp294
g3
g31
sg4
g6
sg5
g6
sg7
g31
sg8
I1279
sg9
I00
sg10
I-113784
sg11
g6
sg13
g6
sg14
g31
sg15
g6
sg16
g6
sg17
g6
sg18
g6
sg19
g6
sg20
I113784
sg21
g6
sg22
g6
sg23
g6
sg24
g6
sg25
g6
sg26
g6
sg27
I1279
sg28
g6
ssS'SHERRICK JEFFREY B'
p295
(dp296
g3
F0.02821316614420063
sg4
I613
sg5
g6
sg7
F0.061128526645768025
sg8
g6
sg9
I00
sg10
g6
sg11
S'jeffrey.sherrick@enron.com'
p297
sg13
g6
sg14
F1.0031347962382444
sg15
g6
sg16
I583
sg17
g6
sg18
I25
sg19
g6
sg20
g6
sg21
g6
sg22
I1832468
sg23
I39
sg24
I18
sg25
I405999
sg26
g6
sg27
g6
sg28
I1426469
ssS'PRENTICE JAMES'
p298
(dp299
g3
g31
sg4
g6
sg5
I564348
sg7
g31
sg8
g6
sg9
I00
sg10
g6
sg11
S'james.prentice@enron.com'
p300
sg13
g6
sg14
g31
sg15
g6
sg16
g6
sg17
g6
sg18
g6
sg19
g6
sg20
g6
sg21
g6
sg22
I1095040
sg23
g6
sg24
g6
sg25
I208809
sg26
g6
sg27
I564348
sg28
I886231
ssS'GRAY RODNEY'
p301
(dp302
g3
g31
sg4
g6
sg5
I93585
sg7
g31
sg8
g6
sg9
I00
sg10
g6
sg11
g6
sg13
I365625
sg14
g31
sg15
g6
sg16
g6
sg17
g6
sg18
g6
sg19
I680833
sg20
g6
sg21
g6
sg22
g6
sg23
g6
sg24
g6
sg25
g6
sg26
I6615
sg27
I1146658
sg28
g6
ssS'PICKERING MARK R'
p303
(dp304
g3
F0.0
sg4
I898
sg5
g6
sg7
F0.007253886010362694
sg8
I31653
sg9
I00
sg10
g6
sg11
S'mark.pickering@enron.com'
p305
sg13
g6
sg14
F0.7616580310880829
sg15
g6
sg16
I728
sg17
I400000
sg18
I67
sg19
g6
sg20
g6
sg21
I300000
sg22
I28798
sg23
I7
sg24
I0
sg25
g6
sg26
I655037
sg27
I1386690
sg28
I28798
ssS'NOLES JAMES L'
p306
(dp307
g3
g31
sg4
g6
sg5
I774401
sg7
g31
sg8
g6
sg9
I00
sg10
g6
sg11
g6
sg13
g6
sg14
g31
sg15
I-94556
sg16
g6
sg17
g6
sg18
g6
sg19
g6
sg20
g6
sg21
g6
sg22
I368705
sg23
g6
sg24
g6
sg25
I463261
sg26
g6
sg27
I774401
sg28
g6
ssS'KEAN STEVEN J'
p308
(dp309
g3
F0.019832931891559474
sg4
I12754
sg5
g6
sg7
F0.007174704043458207
sg8
I41953
sg9
I00
sg10
g6
sg11
S'steven.kean@enron.com'
p310
sg13
I300000
sg14
F0.21349869317890638
sg15
g6
sg16
I3639
sg17
g6
sg18
I6759
sg19
I1231
sg20
g6
sg21
I1000000
sg22
I6153642
sg23
I140
sg24
I387
sg25
I4131594
sg26
I404338
sg27
I1747522
sg28
I2022048
ssS'FOWLER PEGGY'
p311
(dp312
g3
F0.0
sg4
I517
sg5
g6
sg7
F0.0
sg8
g6
sg9
I00
sg10
g6
sg11
S'kulvinder.fowler@enron.com'
p313
sg13
g6
sg14
F0.018083182640144666
sg15
g6
sg16
I10
sg17
g6
sg18
I36
sg19
g6
sg20
g6
sg21
g6
sg22
I1884748
sg23
I0
sg24
I0
sg25
I560170
sg26
g6
sg27
g6
sg28
I1324578
ssS'WASAFF GEORGE'
p314
(dp315
g3
F0.01627906976744186
sg4
I400
sg5
I831299
sg7
F0.05116279069767442
sg8
g6
sg9
I00
sg10
I-583325
sg11
S'george.wasaff@enron.com'
p316
sg13
I200000
sg14
F0.8511627906976744
sg15
g6
sg16
I337
sg17
g6
sg18
I30
sg19
I1425
sg20
g6
sg21
I325000
sg22
I2056427
sg23
I22
sg24
I7
sg25
I388167
sg26
I259996
sg27
I1034395
sg28
I1668260
ssS'WHITE JR THOMAS E'
p317
(dp318
g3
g31
sg4
g6
sg5
g6
sg7
g31
sg8
I81353
sg9
I00
sg10
g6
sg11
S'thomas.white@enron.com'
p319
sg13
g6
sg14
g31
sg15
g6
sg16
g6
sg17
g6
sg18
g6
sg19
I1085463
sg20
g6
sg21
I450000
sg22
I15144123
sg23
g6
sg24
g6
sg25
I13847074
sg26
I317543
sg27
I1934359
sg28
I1297049
ssS'CHRISTODOULOU DIOMEDES'
p320
(dp321
g3
g31
sg4
g6
sg5
g6
sg7
g31
sg8
g6
sg9
I00
sg10
g6
sg11
S'diomedes.christodoulou@enron.com'
p322
sg13
g6
sg14
g31
sg15
g6
sg16
g6
sg17
g6
sg18
g6
sg19
g6
sg20
g6
sg21
g6
sg22
I6077885
sg23
g6
sg24
g6
sg25
I950730
sg26
g6
sg27
g6
sg28
I5127155
ssS'ALLEN PHILLIP K'
p323
(dp324
g3
F0.012752599568373553
sg4
I2902
sg5
I2869717
sg7
F0.009221110457131646
sg8
I13868
sg9
I00
sg10
I-3081055
sg11
S'phillip.allen@enron.com'
p325
sg13
I304805
sg14
F0.2980184422209143
sg15
I-126027
sg16
I1407
sg17
g6
sg18
I2195
sg19
I152
sg20
g6
sg21
I4175000
sg22
I1729541
sg23
I47
sg24
I65
sg25
I126027
sg26
I201955
sg27
I4484442
sg28
I1729541
ssS'SHARP VICTORIA T'
p326
(dp327
g3
F0.0018337408312958435
sg4
I3136
sg5
I187469
sg7
F0.007334963325183374
sg8
I116337
sg9
I00
sg10
g6
sg11
S'vicki.sharp@enron.com'
p328
sg13
I422158
sg14
F0.76619804400978
sg15
g6
sg16
I2477
sg17
g6
sg18
I136
sg19
I2401
sg20
g6
sg21
I600000
sg22
I494136
sg23
I24
sg24
I6
sg25
I213063
sg26
I248146
sg27
I1576511
sg28
I281073
ssS'JAEDICKE ROBERT'
p329
(dp330
g3
g31
sg4
g6
sg5
g6
sg7
g31
sg8
g6
sg9
I00
sg10
I-25000
sg11
g6
sg13
g6
sg14
g31
sg15
I-44093
sg16
g6
sg17
g6
sg18
g6
sg19
g6
sg20
I108750
sg21
g6
sg22
I431750
sg23
g6
sg24
g6
sg25
I44093
sg26
g6
sg27
I83750
sg28
I431750
ssS'WINOKUR JR. HERBERT S'
p331
(dp332
g3
g31
sg4
g6
sg5
g6
sg7
g31
sg8
I1413
sg9
I00
sg10
I-25000
sg11
g6
sg13
g6
sg14
g31
sg15
g6
sg16
g6
sg17
g6
sg18
g6
sg19
g6
sg20
I108579
sg21
g6
sg22
g6
sg23
g6
sg24
g6
sg25
g6
sg26
g6
sg27
I84992
sg28
g6
ssS'BROWN MICHAEL'
p333
(dp334
g3
F0.0006548788474132286
sg4
I1486
sg5
g6
sg7
F0.008513425016371971
sg8
I49288
sg9
I00
sg10
g6
sg11
S'michael.brown@enron.com'
p335
sg13
g6
sg14
F0.5075311067452521
sg15
g6
sg16
I761
sg17
g6
sg18
I41
sg19
g6
sg20
g6
sg21
g6
sg22
g6
sg23
I13
sg24
I1
sg25
g6
sg26
g6
sg27
I49288
sg28
g6
ssS'BADUM JAMES P'
p336
(dp337
g3
g31
sg4
g6
sg5
I178980
sg7
g31
sg8
I3486
sg9
I00
sg10
g6
sg11
g6
sg13
g6
sg14
g31
sg15
g6
sg16
g6
sg17
g6
sg18
g6
sg19
g6
sg20
g6
sg21
g6
sg22
I257817
sg23
g6
sg24
g6
sg25
g6
sg26
g6
sg27
I182466
sg28
I257817
ssS'HUGHES JAMES A'
p338
(dp339
g3
F0.006640106241699867
sg4
I719
sg5
g6
sg7
F0.04648074369189907
sg8
g6
sg9
I00
sg10
g6
sg11
S'james.hughes@enron.com'
p340
sg13
g6
sg14
F0.8353253652058433
sg15
g6
sg16
I589
sg17
g6
sg18
I34
sg19
g6
sg20
g6
sg21
g6
sg22
I1118394
sg23
I35
sg24
I5
sg25
I363428
sg26
g6
sg27
g6
sg28
I754966
ssS'REYNOLDS LAWRENCE'
p341
(dp342
g3
g31
sg4
g6
sg5
I51365
sg7
g31
sg8
I8409
sg9
I00
sg10
I-200000
sg11
g6
sg13
I156250
sg14
g31
sg15
I-140264
sg16
g6
sg17
g6
sg18
g6
sg19
I202052
sg20
g6
sg21
I100000
sg22
I4221891
sg23
g6
sg24
g6
sg25
I201483
sg26
I76399
sg27
I394475
sg28
I4160672
ssS'DIMICHELE RICHARD G'
p343
(dp344
g3
g31
sg4
g6
sg5
g6
sg7
g31
sg8
I35812
sg9
I00
sg10
g6
sg11
S'richard.dimichele@enron.com'
p345
sg13
I694862
sg14
g31
sg15
g6
sg16
g6
sg17
g6
sg18
g6
sg19
I374689
sg20
g6
sg21
I1000000
sg22
I8317782
sg23
g6
sg24
g6
sg25
I126027
sg26
I262788
sg27
I2368151
sg28
I8191755
ssS'BHATNAGAR SANJAY'
p346
(dp347
g3
F0.0018115942028985507
sg4
I523
sg5
g6
sg7
F0.0
sg8
g6
sg9
I00
sg10
g6
sg11
S'sanjay.bhatnagar@enron.com'
p348
sg13
g6
sg14
F0.8405797101449275
sg15
I15456290
sg16
I463
sg17
g6
sg18
I29
sg19
I137864
sg20
I137864
sg21
g6
sS'total_stock_value'
p349
S'NaN'
p350
sg23
I0
sg24
I1
sg25
I-2604490
sg26
g6
sg27
I15456290
sg28
I2604490
ssS'CARTER REBECCA C'
p351
(dp352
g3
F0.021406727828746176
sg4
I312
sg5
g6
sg7
F0.08868501529051988
sg8
g6
sg9
I00
sg10
I-159792
sg11
S'rebecca.carter@enron.com'
p353
sg13
I75000
sg14
F0.709480122324159
sg15
I-307301
sg16
I196
sg17
g6
sg18
I15
sg19
I540
sg20
g6
sg21
I300000
sg22
g6
sg23
I29
sg24
I7
sg25
I307301
sg26
I261809
sg27
I477557
sg28
g6
ssS'BUCHANAN HAROLD G'
p354
(dp355
g3
F0.0
sg4
I1088
sg5
g6
sg7
F0.0
sg8
I600
sg9
I00
sg10
g6
sg11
S'john.buchanan@enron.com'
p356
sg13
I304805
sg14
F0.018961253091508656
sg15
g6
sg16
I23
sg17
g6
sg18
I125
sg19
I1215
sg20
g6
sg21
I500000
sg22
I1014505
sg23
I0
sg24
I0
sg25
I189041
sg26
I248017
sg27
I1054637
sg28
I825464
ssS'YEAP SOON'
p357
(dp358
g3
g31
sg4
g6
sg5
g6
sg7
g31
sg8
I55097
sg9
I00
sg10
g6
sg11
g6
sg13
g6
sg14
g31
sg15
g6
sg16
g6
sg17
g6
sg18
g6
sg19
g6
sg20
g6
sg21
g6
sg22
I192758
sg23
g6
sg24
g6
sg25
g6
sg26
g6
sg27
I55097
sg28
I192758
ssS'MURRAY JULIA H'
p359
(dp360
g3
F0.000894054537326777
sg4
I2192
sg5
g6
sg7
F0.0049172999552972736
sg8
I57580
sg9
I00
sg10
g6
sg11
S'julia.murray@enron.com'
p361
sg13
I125000
sg14
F0.1823871256146625
sg15
g6
sg16
I395
sg17
g6
sg18
I45
sg19
I330
sg20
g6
sg21
I400000
sg22
I597461
sg23
I11
sg24
I2
sg25
I196983
sg26
I229284
sg27
I812194
sg28
I400478
ssS'GARLAND C KEVIN'
p362
(dp363
g3
F0.1067193675889328
sg4
I209
sg5
g6
sg7
F0.039525691699604744
sg8
I48405
sg9
I00
sg10
g6
sg11
S'kevin.garland@enron.com'
p364
sg13
I375304
sg14
F0.849802371541502
sg15
g6
sg16
I178
sg17
g6
sg18
I44
sg19
I60814
sg20
g6
sg21
I850000
sg22
I896153
sg23
I10
sg24
I27
sg25
I259907
sg26
I231946
sg27
I1566469
sg28
I636246
ssS'DODSON KEITH'
p365
(dp366
g3
F0.015789473684210527
sg4
I176
sg5
g6
sg7
F0.05263157894736842
sg8
I28164
sg9
I00
sg10
g6
sg11
S'keith.dodson@enron.com'
p367
sg13
g6
sg14
F0.6684210526315789
sg15
g6
sg16
I114
sg17
g6
sg18
I14
sg19
I774
sg20
g6
sg21
I70000
sg22
g6
sg23
I10
sg24
I3
sg25
g6
sg26
I221003
sg27
I319941
sg28
g6
ssS'YEAGER F SCOTT'
p368
(dp369
g3
g31
sg4
g6
sg5
g6
sg7
g31
sg8
I53947
sg9
I01
sg10
g6
sg11
S'scott.yeager@enron.com'
p370
sg13
g6
sg14
g31
sg15
g6
sg16
g6
sg17
g6
sg18
g6
sg19
I147950
sg20
g6
sg21
g6
sg22
I11884758
sg23
g6
sg24
g6
sg25
I3576206
sg26
I158403
sg27
I360300
sg28
I8308552
ssS'HIRKO JOSEPH'
p371
(dp372
g3
g31
sg4
g6
sg5
I10259
sg7
g31
sg8
I77978
sg9
I01
sg10
g6
sg11
S'joe.hirko@enron.com'
p373
sg13
g6
sg14
g31
sg15
g6
sg16
g6
sg17
g6
sg18
g6
sg19
I2856
sg20
g6
sg21
g6
sg22
I30766064
sg23
g6
sg24
g6
sg25
g6
sg26
g6
sg27
I91093
sg28
I30766064
ssS'DIETRICH JANET R'
p374
(dp375
g3
F0.005313092979127135
sg4
I2572
sg5
g6
sg7
F0.1157495256166983
sg8
I3475
sg9
I00
sg10
g6
sg11
S'janet.dietrich@enron.com'
p376
sg13
I556416
sg14
F0.8428842504743833
sg15
g6
sg16
I1902
sg17
g6
sg18
I63
sg19
I473
sg20
g6
sg21
I600000
sg22
I1865087
sg23
I305
sg24
I14
sg25
I315068
sg26
I250100
sg27
I1410464
sg28
I1550019
ssS'DERRICK JR. JAMES V'
p377
(dp378
g3
F0.006472491909385114
sg4
I2181
sg5
g6
sg7
F0.020711974110032363
sg8
I51124
sg9
I00
sg10
I-1284000
sg11
S'james.derrick@enron.com'
p379
sg13
I484000
sg14
F0.48058252427184467
sg15
I-1787380
sg16
I1401
sg17
g6
sg18
I909
sg19
I7482
sg20
g6
sg21
I800000
sg22
I8831913
sg23
I64
sg24
I20
sg25
I1787380
sg26
I492375
sg27
I550981
sg28
I8831913
ssS'FREVERT MARK A'
p380
(dp381
g3
F0.0018203883495145632
sg4
I3275
sg5
I6426990
sg7
F0.07342233009708737
sg8
I86987
sg9
I00
sg10
I-3367011
sg11
S'mark.frevert@enron.com'
p382
sg13
I1617011
sg14
F0.9790655339805825
sg15
g6
sg16
I2979
sg17
I2000000
sg18
I21
sg19
I7427621
sg20
g6
sg21
I2000000
sg22
I14622185
sg23
I242
sg24
I6
sg25
I4188667
sg26
I1060932
sg27
I17252530
sg28
I10433518
ssS'PAI LOU L'
p383
(dp384
g3
g31
sg4
g6
sg5
g6
sg7
g31
sg8
I32047
sg9
I00
sg10
g6
sg11
S'lou.pai@enron.com'
p385
sg13
g6
sg14
g31
sg15
g6
sg16
g6
sg17
g6
sg18
g6
sg19
I1829457
sg20
g6
sg21
I1000000
sg22
I23817930
sg23
g6
sg24
g6
sg25
I8453763
sg26
I261879
sg27
I3123383
sg28
I15364167
ssS'BAY FRANKLIN R'
p386
(dp387
g3
g31
sg4
g6
sg5
I260455
sg7
g31
sg8
I129142
sg9
I00
sg10
I-201641
sg11
S'frank.bay@enron.com'
p388
sg13
g6
sg14
g31
sg15
I-82782
sg16
g6
sg17
g6
sg18
g6
sg19
I69
sg20
g6
sg21
I400000
sg22
I63014
sg23
g6
sg24
g6
sg25
I145796
sg26
I239671
sg27
I827696
sg28
g6
ssS'HAYSLETT RODERICK J'
p389
(dp390
g3
F0.010242587601078167
sg4
I2649
sg5
g6
sg7
F0.009433962264150943
sg8
g6
sg9
I00
sg10
g6
sg11
S'rod.hayslett@enron.com'
p391
sg13
g6
sg14
F0.17358490566037735
sg15
g6
sg16
I571
sg17
g6
sg18
I1061
sg19
g6
sg20
g6
sg21
g6
sg22
I346663
sg23
I35
sg24
I38
sg25
I346663
sg26
g6
sg27
g6
sg28
g6
ssS'FUGH JOHN L'
p392
(dp393
g3
g31
sg4
g6
sg5
I50591
sg7
g31
sg8
g6
sg9
I00
sg10
g6
sg11
g6
sg13
g6
sg14
g31
sg15
g6
sg16
g6
sg17
g6
sg18
g6
sg19
g6
sg20
g6
sg21
g6
sg22
I176378
sg23
g6
sg24
g6
sg25
g6
sg26
g6
sg27
I50591
sg28
I176378
ssS'FALLON JAMES B'
p394
(dp395
g3
F0.020218579234972677
sg4
I1755
sg5
g6
sg7
F0.022950819672131147
sg8
I95924
sg9
I00
sg10
g6
sg11
S'jim.fallon@enron.com'
p396
sg13
I374347
sg14
F0.919672131147541
sg15
g6
sg16
I1604
sg17
g6
sg18
I75
sg19
I401481
sg20
g6
sg21
I2500000
sg22
I2332399
sg23
I42
sg24
I37
sg25
I1392142
sg26
I304588
sg27
I3676340
sg28
I940257
ssS'KOENIG MARK E'
p397
(dp398
g3
F0.006160164271047228
sg4
I2374
sg5
g6
sg7
F0.021765913757700206
sg8
I127017
sg9
I01
sg10
g6
sg11
S'mark.koenig@enron.com'
p399
sg13
I300000
sg14
F0.9605749486652977
sg15
g6
sg16
I2271
sg17
g6
sg18
I61
sg19
I150458
sg20
g6
sg21
I700000
sg22
I1920055
sg23
I53
sg24
I15
sg25
I1248318
sg26
I309946
sg27
I1587421
sg28
I671737
ssS'SAVAGE FRANK'
p400
(dp401
g3
g31
sg4
g6
sg5
g6
sg7
g31
sg8
g6
sg9
I00
sg10
I-121284
sg11
g6
sg13
g6
sg14
g31
sg15
g6
sg16
g6
sg17
g6
sg18
g6
sg19
g6
sg20
I125034
sg21
g6
sg22
g6
sg23
g6
sg24
g6
sg25
g6
sg26
g6
sg27
I3750
sg28
g6
ssS'IZZO LAWRENCE L'
p402
(dp403
g3
F0.009708737864077669
sg4
I496
sg5
g6
sg7
F0.05436893203883495
sg8
I28093
sg9
I00
sg10
g6
sg11
S'larry.izzo@enron.com'
p404
sg13
I312500
sg14
F0.912621359223301
sg15
g6
sg16
I437
sg17
g6
sg18
I19
sg19
I1553729
sg20
g6
sg21
g6
sg22
I5819980
sg23
I28
sg24
I5
sg25
I3654808
sg26
I85274
sg27
I1979596
sg28
I2165172
ssS'TILNEY ELIZABETH A'
p405
(dp406
g3
F0.022964509394572025
sg4
I460
sg5
g6
sg7
F0.020876826722338204
sg8
g6
sg9
I00
sg10
I-575000
sg11
S'elizabeth.tilney@enron.com'
p407
sg13
I275000
sg14
F0.8350730688935282
sg15
g6
sg16
I379
sg17
g6
sg18
I19
sg19
I152055
sg20
g6
sg21
I300000
sg22
I1168042
sg23
I10
sg24
I11
sg25
I576792
sg26
I247338
sg27
I399393
sg28
I591250
ssS'MARTIN AMANDA K'
p408
(dp409
g3
F0.0
sg4
I1522
sg5
I85430
sg7
F0.0045662100456621
sg8
I8211
sg9
I00
sg10
g6
sg11
S'a..martin@enron.com'
p410
sg13
I5145434
sg14
F0.2768264840182648
sg15
g6
sg16
I477
sg17
g6
sg18
I230
sg19
I2818454
sg20
g6
sg21
g6
sg22
I2070306
sg23
I8
sg24
I0
sg25
g6
sg26
I349487
sg27
I8407016
sg28
I2070306
ssS'BUY RICHARD B'
p411
(dp412
g3
F0.015515734265734266
sg4
I3523
sg5
I649584
sg7
F0.03409090909090909
sg8
g6
sg9
I00
sg10
I-694862
sg11
S'rick.buy@enron.com'
p413
sg13
I769862
sg14
F0.5594405594405595
sg15
g6
sg16
I2333
sg17
g6
sg18
I1053
sg19
I400572
sg20
g6
sg21
I900000
sg22
I3444470
sg23
I156
sg24
I71
sg25
I901657
sg26
I330546
sg27
I2355702
sg28
I2542813
ssS'GRAMM WENDY L'
p414
(dp415
g3
g31
sg4
g6
sg5
g6
sg7
g31
sg8
g6
sg9
I00
sg10
g6
sg11
g6
sg13
g6
sg14
g31
sg15
g6
sg16
g6
sg17
g6
sg18
g6
sg19
g6
sg20
I119292
sg21
g6
sg22
g6
sg23
g6
sg24
g6
sg25
g6
sg26
g6
sg27
I119292
sg28
g6
ssS'CAUSEY RICHARD A'
p416
(dp417
g3
F0.0061823802163833074
sg4
I1892
sg5
g6
sg7
F0.029881504379185988
sg8
I30674
sg9
I01
sg10
I-235000
sg11
S'richard.causey@enron.com'
p418
sg13
I350000
sg14
F0.8526532715095312
sg15
g6
sg16
I1585
sg17
g6
sg18
I49
sg19
I307895
sg20
g6
sg21
I1000000
sg22
I2502063
sg23
I58
sg24
I12
sg25
I2502063
sg26
I415189
sg27
I1868758
sg28
g6
ssS'TAYLOR MITCHELL S'
p419
(dp420
g3
F0.0
sg4
I533
sg5
I227449
sg7
F0.0
sg8
g6
sg9
I00
sg10
g6
sg11
S'mitchell.taylor@enron.com'
p421
sg13
g6
sg14
F0.5338078291814946
sg15
g6
sg16
I300
sg17
g6
sg18
I29
sg19
g6
sg20
g6
sg21
I600000
sg22
I3745048
sg23
I0
sg24
I0
sg25
I563798
sg26
I265214
sg27
I1092663
sg28
I3181250
ssS'DONAHUE JR JEFFREY M'
p422
(dp423
g3
F0.012401352874859075
sg4
I865
sg5
g6
sg7
F0.21195039458850057
sg8
I96268
sg9
I00
sg10
I-300000
sg11
S'jeff.donahue@enron.com'
p424
sg13
g6
sg14
F1.0947012401352876
sg15
g6
sg16
I772
sg17
g6
sg18
I22
sg19
I891
sg20
g6
sg21
I800000
sg22
I1080988
sg23
I188
sg24
I11
sg25
I315068
sg26
I278601
sg27
I875760
sg28
I765920
ssS'GLISAN JR BEN F'
p425
(dp426
g3
F0.006749156355455568
sg4
I873
sg5
g6
sg7
F0.05849268841394826
sg8
I125978
sg9
I01
sg10
g6
sg11
S'ben.glisan@enron.com'
p427
sg13
I71023
sg14
F1.048368953880765
sg15
g6
sg16
I874
sg17
g6
sg18
I16
sg19
I200308
sg20
g6
sg21
I600000
sg22
I778546
sg23
I52
sg24
I6
sg25
I393818
sg26
I274975
sg27
I1272284
sg28
I384728
ss.